; Function Attrs: mustprogress nounwind sspstrong uwtable
define void @_ZN4FLAC8Metadata7PaddingD2Ev(ptr nocapture noundef nonnull align 8 dereferenceable(17) %this) unnamed_addr #5 align 2 personality ptr @__gxx_personality_v0 {
entry:
  store ptr getelementptr inbounds ({ [5 x ptr] }, ptr @_ZTVN4FLAC8Metadata9PrototypeE, i64 0, i32 0, i64 2), ptr %this, align 8
  %object_.i.i = getelementptr inbounds i8, ptr %this, i64 8
  %0 = load ptr, ptr %object_.i.i, align 8
  %cmp.not.i.i = icmp eq ptr %0, null
  br i1 %cmp.not.i.i, label %_ZN4FLAC8Metadata9PrototypeD2Ev.exit, label %land.lhs.true.i.i

land.lhs.true.i.i:                                ; preds = %entry
  %is_reference_.i.i = getelementptr inbounds i8, ptr %this, i64 16
  %1 = load i8, ptr %is_reference_.i.i, align 8
  %2 = and i8 %1, 1
  %tobool.not.i.i = icmp eq i8 %2, 0
  br i1 %tobool.not.i.i, label %if.then.i.i, label %_ZN4FLAC8Metadata9PrototypeD2Ev.exit

if.then.i.i:                                      ; preds = %land.lhs.true.i.i
  invoke void @FLAC__metadata_object_delete(ptr noundef nonnull %0)
          to label %_ZN4FLAC8Metadata9PrototypeD2Ev.exit unwind label %terminate.lpad.i

terminate.lpad.i:                                 ; preds = %if.then.i.i
  %3 = landingpad { ptr, i32 }
          catch ptr null
  %4 = extractvalue { ptr, i32 } %3, 0
  tail call void @__clang_call_terminate(ptr %4) #22
  unreachable

_ZN4FLAC8Metadata9PrototypeD2Ev.exit:             ; preds = %entry, %land.lhs.true.i.i, %if.then.i.i
  store ptr null, ptr %object_.i.i, align 8
  ret void
}